target datalayout = "e-m:e-p270:32:32-p271:32:32-p272:64:64-i64:64-i128:128-f80:128-n8:16:32:64-S128"
target triple = "x86_64-pc-linux-gnu"

%struct.Abc_Cex_t_ = type { i32, i32, i32, i32, i32, [0 x i32] }
%struct.Gia_Man_t_ = type { ptr, ptr, i32, i32, i32, i32, ptr, ptr, i32, i32, i32, ptr, ptr, %struct.Vec_Int_t_, %struct.Vec_Int_t_, i32, i32, i32, %struct.Vec_Int_t_, ptr, ptr, ptr, i32, i32, i32, i32, ptr, ptr, ptr, ptr, ptr, i32, i32, ptr, i32, ptr, ptr, ptr, ptr, ptr, ptr, ptr, ptr, ptr, ptr, ptr, ptr, ptr, ptr, ptr, ptr, ptr, ptr, %struct.Vec_Int_t_, %struct.Vec_Int_t_, ptr, ptr, ptr, ptr, ptr, ptr, ptr, ptr, ptr, ptr, ptr, ptr, ptr, ptr, ptr, ptr, ptr, ptr, ptr, ptr, ptr, i32, float, float, ptr, ptr, i32, ptr, ptr, ptr, ptr, ptr, ptr, ptr, ptr, ptr, ptr, ptr, ptr, ptr, ptr, ptr, i64, i64, ptr, ptr, i32, i32, i32, i32, i32, i32, i32, i32, i32, i32, i32, i32, ptr, ptr, ptr, ptr, ptr, ptr, ptr, ptr, i32, i32, i32, ptr, i32, i32, ptr, ptr, ptr, ptr, ptr, ptr, i32, i32, ptr, %struct.Vec_Int_t_, %struct.Vec_Int_t_, %struct.Vec_Int_t_, ptr, ptr, ptr }
%struct.Vec_Int_t_ = type { i32, i32, ptr }
%struct.Vec_Ptr_t_ = type { i32, i32, ptr }

@.str = private unnamed_addr constant [87 x i8] c"The CEX has flop values different from 0, but they are currently not used by \22resim\22.\0A\00", align 1

; Function Attrs: nounwind uwtable
define internal i32 @Vec_PtrSize(ptr noundef %0) #0 {
  %2 = alloca ptr, align 8
  store ptr %0, ptr %2, align 8
  %3 = load ptr, ptr %2, align 8
  %4 = getelementptr inbounds %struct.Vec_Ptr_t_, ptr %3, i32 0, i32 1
  %5 = load i32, ptr %4, align 4
  ret i32 %5
}

; Function Attrs: nounwind uwtable
define internal ptr @Vec_PtrEntry(ptr noundef %0, i32 noundef %1) #0 {
  %3 = alloca ptr, align 8
  %4 = alloca i32, align 4
  store ptr %0, ptr %3, align 8
  store i32 %1, ptr %4, align 4
  %5 = load ptr, ptr %3, align 8
  %6 = getelementptr inbounds %struct.Vec_Ptr_t_, ptr %5, i32 0, i32 2
  %7 = load ptr, ptr %6, align 8
  %8 = load i32, ptr %4, align 4
  %9 = sext i32 %8 to i64
  %10 = getelementptr inbounds ptr, ptr %7, i64 %9
  %11 = load ptr, ptr %10, align 8
  ret ptr %11
}

; Function Attrs: nounwind uwtable
define internal i32 @Gia_ManRegNum(ptr noundef %0) #0 {
  %2 = alloca ptr, align 8
  store ptr %0, ptr %2, align 8
  %3 = load ptr, ptr %2, align 8
  %4 = getelementptr inbounds %struct.Gia_Man_t_, ptr %3, i32 0, i32 2
  %5 = load i32, ptr %4, align 8
  ret i32 %5
}

; Function Attrs: nounwind uwtable
define internal i32 @Abc_InfoHasBit(ptr noundef %0, i32 noundef %1) #0 {
  %3 = alloca ptr, align 8
  %4 = alloca i32, align 4
  store ptr %0, ptr %3, align 8
  store i32 %1, ptr %4, align 4
  %5 = load ptr, ptr %3, align 8
  %6 = load i32, ptr %4, align 4
  %7 = ashr i32 %6, 5
  %8 = sext i32 %7 to i64
  %9 = getelementptr inbounds i32, ptr %5, i64 %8
  %10 = load i32, ptr %9, align 4
  %11 = load i32, ptr %4, align 4
  %12 = and i32 %11, 31
  %13 = shl i32 1, %12
  %14 = and i32 %10, %13
  %15 = icmp ugt i32 %14, 0
  %16 = zext i1 %15 to i32
  ret i32 %16
}

; Function Attrs: nounwind uwtable
define internal i32 @Vec_PtrReadWordsSimInfo(ptr noundef %0) #0 {
  %2 = alloca ptr, align 8
  store ptr %0, ptr %2, align 8
  %3 = load ptr, ptr %2, align 8
  %4 = call ptr @Vec_PtrEntry(ptr noundef %3, i32 noundef 1)
  %5 = load ptr, ptr %2, align 8
  %6 = call ptr @Vec_PtrEntry(ptr noundef %5, i32 noundef 0)
  %7 = ptrtoint ptr %4 to i64
  %8 = ptrtoint ptr %6 to i64
  %9 = sub i64 %7, %8
  %10 = sdiv exact i64 %9, 4
  %11 = trunc i64 %10 to i32
  ret i32 %11
}

; Function Attrs: nounwind uwtable
define void @Cec_ManSeqDeriveInfoFromCex(ptr noundef %0, ptr noundef %1, ptr noundef %2) #0 {
  %4 = alloca ptr, align 8
  %5 = alloca ptr, align 8
  %6 = alloca ptr, align 8
  %7 = alloca ptr, align 8
  %8 = alloca i32, align 4
  %9 = alloca i32, align 4
  %10 = alloca i32, align 4
  %11 = alloca i32, align 4
  store ptr %0, ptr %4, align 8
  store ptr %1, ptr %5, align 8
  store ptr %2, ptr %6, align 8
  %12 = load ptr, ptr %4, align 8
  %13 = call i32 @Vec_PtrReadWordsSimInfo(ptr noundef %12)
  store i32 %13, ptr %11, align 4
  store i32 0, ptr %8, align 4
  br label %14

14:                                               ; preds = %29, %3
  %15 = load i32, ptr %8, align 4
  %16 = load ptr, ptr %6, align 8
  %17 = getelementptr inbounds %struct.Abc_Cex_t_, ptr %16, i32 0, i32 2
  %18 = load i32, ptr %17, align 4
  %19 = icmp slt i32 %15, %18
  br i1 %19, label %20, label %32

20:                                               ; preds = %14
  %21 = load ptr, ptr %6, align 8
  %22 = getelementptr inbounds %struct.Abc_Cex_t_, ptr %21, i32 0, i32 5
  %23 = getelementptr inbounds [0 x i32], ptr %22, i64 0, i64 0
  %24 = load i32, ptr %8, align 4
  %25 = call i32 @Abc_InfoHasBit(ptr noundef %23, i32 noundef %24)
  %26 = icmp ne i32 %25, 0
  br i1 %26, label %27, label %28

27:                                               ; preds = %20
  br label %32

28:                                               ; preds = %20
  br label %29

29:                                               ; preds = %28
  %30 = load i32, ptr %8, align 4
  %31 = add nsw i32 %30, 1
  store i32 %31, ptr %8, align 4
  br label %14, !llvm.loop !4

32:                                               ; preds = %27, %14
  %33 = load i32, ptr %8, align 4
  %34 = load ptr, ptr %6, align 8
  %35 = getelementptr inbounds %struct.Abc_Cex_t_, ptr %34, i32 0, i32 2
  %36 = load i32, ptr %35, align 4
  %37 = icmp slt i32 %33, %36
  br i1 %37, label %38, label %39

38:                                               ; preds = %32
  call void (i32, ptr, ...) @Abc_Print(i32 noundef 0, ptr noundef @.str)
  br label %39

39:                                               ; preds = %38, %32
  store i32 0, ptr %8, align 4
  br label %40

40:                                               ; preds = %62, %39
  %41 = load i32, ptr %8, align 4
  %42 = load ptr, ptr %5, align 8
  %43 = call i32 @Gia_ManRegNum(ptr noundef %42)
  %44 = icmp slt i32 %41, %43
  br i1 %44, label %45, label %65

45:                                               ; preds = %40
  %46 = load ptr, ptr %4, align 8
  %47 = load i32, ptr %8, align 4
  %48 = call ptr @Vec_PtrEntry(ptr noundef %46, i32 noundef %47)
  store ptr %48, ptr %7, align 8
  store i32 0, ptr %10, align 4
  br label %49

49:                                               ; preds = %58, %45
  %50 = load i32, ptr %10, align 4
  %51 = load i32, ptr %11, align 4
  %52 = icmp slt i32 %50, %51
  br i1 %52, label %53, label %61

53:                                               ; preds = %49
  %54 = load ptr, ptr %7, align 8
  %55 = load i32, ptr %10, align 4
  %56 = sext i32 %55 to i64
  %57 = getelementptr inbounds i32, ptr %54, i64 %56
  store i32 0, ptr %57, align 4
  br label %58

58:                                               ; preds = %53
  %59 = load i32, ptr %10, align 4
  %60 = add nsw i32 %59, 1
  store i32 %60, ptr %10, align 4
  br label %49, !llvm.loop !6

61:                                               ; preds = %49
  br label %62

62:                                               ; preds = %61
  %63 = load i32, ptr %8, align 4
  %64 = add nsw i32 %63, 1
  store i32 %64, ptr %8, align 4
  br label %40, !llvm.loop !7

65:                                               ; preds = %40
  %66 = load ptr, ptr %6, align 8
  %67 = getelementptr inbounds %struct.Abc_Cex_t_, ptr %66, i32 0, i32 2
  %68 = load i32, ptr %67, align 4
  store i32 %68, ptr %9, align 4
  br label %69

69:                                               ; preds = %110, %65
  %70 = load i32, ptr %9, align 4
  %71 = load ptr, ptr %6, align 8
  %72 = getelementptr inbounds %struct.Abc_Cex_t_, ptr %71, i32 0, i32 4
  %73 = load i32, ptr %72, align 4
  %74 = icmp slt i32 %70, %73
  br i1 %74, label %75, label %113

75:                                               ; preds = %69
  %76 = load ptr, ptr %4, align 8
  %77 = load i32, ptr %8, align 4
  %78 = add nsw i32 %77, 1
  store i32 %78, ptr %8, align 4
  %79 = call ptr @Vec_PtrEntry(ptr noundef %76, i32 noundef %77)
  store ptr %79, ptr %7, align 8
  store i32 0, ptr %10, align 4
  br label %80

80:                                               ; preds = %90, %75
  %81 = load i32, ptr %10, align 4
  %82 = load i32, ptr %11, align 4
  %83 = icmp slt i32 %81, %82
  br i1 %83, label %84, label %93

84:                                               ; preds = %80
  %85 = call i32 @Gia_ManRandom(i32 noundef 0)
  %86 = load ptr, ptr %7, align 8
  %87 = load i32, ptr %10, align 4
  %88 = sext i32 %87 to i64
  %89 = getelementptr inbounds i32, ptr %86, i64 %88
  store i32 %85, ptr %89, align 4
  br label %90

90:                                               ; preds = %84
  %91 = load i32, ptr %10, align 4
  %92 = add nsw i32 %91, 1
  store i32 %92, ptr %10, align 4
  br label %80, !llvm.loop !8

93:                                               ; preds = %80
  %94 = load ptr, ptr %7, align 8
  %95 = getelementptr inbounds i32, ptr %94, i64 0
  %96 = load i32, ptr %95, align 4
  %97 = shl i32 %96, 1
  %98 = load ptr, ptr %6, align 8
  %99 = getelementptr inbounds %struct.Abc_Cex_t_, ptr %98, i32 0, i32 5
  %100 = getelementptr inbounds [0 x i32], ptr %99, i64 0, i64 0
  %101 = load i32, ptr %9, align 4
  %102 = call i32 @Abc_InfoHasBit(ptr noundef %100, i32 noundef %101)
  %103 = or i32 %97, %102
  %104 = load ptr, ptr %7, align 8
  %105 = getelementptr inbounds i32, ptr %104, i64 0
  store i32 %103, ptr %105, align 4
  %106 = load ptr, ptr %7, align 8
  %107 = getelementptr inbounds i32, ptr %106, i64 0
  %108 = load i32, ptr %107, align 4
  %109 = shl i32 %108, 1
  store i32 %109, ptr %107, align 4
  br label %110

110:                                              ; preds = %93
  %111 = load i32, ptr %9, align 4
  %112 = add nsw i32 %111, 1
  store i32 %112, ptr %9, align 4
  br label %69, !llvm.loop !9

113:                                              ; preds = %69
  br label %114

114:                                              ; preds = %137, %113
  %115 = load i32, ptr %8, align 4
  %116 = load ptr, ptr %4, align 8
  %117 = call i32 @Vec_PtrSize(ptr noundef %116)
  %118 = icmp slt i32 %115, %117
  br i1 %118, label %119, label %140

119:                                              ; preds = %114
  %120 = load ptr, ptr %4, align 8
  %121 = load i32, ptr %8, align 4
  %122 = call ptr @Vec_PtrEntry(ptr noundef %120, i32 noundef %121)
  store ptr %122, ptr %7, align 8
  store i32 0, ptr %10, align 4
  br label %123

123:                                              ; preds = %133, %119
  %124 = load i32, ptr %10, align 4
  %125 = load i32, ptr %11, align 4
  %126 = icmp slt i32 %124, %125
  br i1 %126, label %127, label %136

127:                                              ; preds = %123
  %128 = call i32 @Gia_ManRandom(i32 noundef 0)
  %129 = load ptr, ptr %7, align 8
  %130 = load i32, ptr %10, align 4
  %131 = sext i32 %130 to i64
  %132 = getelementptr inbounds i32, ptr %129, i64 %131
  store i32 %128, ptr %132, align 4
  br label %133

133:                                              ; preds = %127
  %134 = load i32, ptr %10, align 4
  %135 = add nsw i32 %134, 1
  store i32 %135, ptr %10, align 4
  br label %123, !llvm.loop !10

136:                                              ; preds = %123
  br label %137

137:                                              ; preds = %136
  %138 = load i32, ptr %8, align 4
  %139 = add nsw i32 %138, 1
  store i32 %139, ptr %8, align 4
  br label %114, !llvm.loop !11

140:                                              ; preds = %114
  ret void
}