; Function Attrs: nounwind uwtable
define void @Cec_ManSeqDeriveInfoFromCex(ptr noundef readonly captures(none) %0, ptr noundef readonly captures(none) %1, ptr noundef readonly captures(none) %2) local_unnamed_addr #0 {
  %4 = getelementptr i8, ptr %0, i64 8
  %.val49 = load ptr, ptr %4, align 8
  %.val49.val = load ptr, ptr %.val49, align 8
  %5 = getelementptr i8, ptr %.val49, i64 8
  %.val49.val50 = load ptr, ptr %5, align 8
  %6 = ptrtoint ptr %.val49.val50 to i64
  %7 = ptrtoint ptr %.val49.val to i64
  %8 = sub i64 %6, %7
  %9 = lshr i64 %8, 2
  %10 = trunc i64 %9 to i32
  %11 = getelementptr inbounds nuw i8, ptr %2, i64 8
  %12 = load i32, ptr %11, align 4
  %13 = icmp sgt i32 %12, 0
  br i1 %13, label %.lr.ph, label %.loopexit

.lr.ph:                                           ; preds = %3
  %14 = getelementptr inbounds nuw i8, ptr %2, i64 20
  br label %17

15:                                               ; preds = %17
  %16 = add nuw nsw i32 %.04454, 1
  %exitcond.not = icmp eq i32 %16, %12
  br i1 %exitcond.not, label %.loopexit, label %17, !llvm.loop !4

17:                                               ; preds = %.lr.ph, %15
  %.04454 = phi i32 [ 0, %.lr.ph ], [ %16, %15 ]
  %18 = lshr i32 %.04454, 5
  %19 = zext nneg i32 %18 to i64
  %20 = getelementptr inbounds nuw i32, ptr %14, i64 %19
  %21 = load i32, ptr %20, align 4
  %22 = and i32 %.04454, 31
  %23 = shl nuw i32 1, %22
  %24 = and i32 %21, %23
  %.not = icmp eq i32 %24, 0
  br i1 %.not, label %15, label %25

25:                                               ; preds = %17
  tail call void (i32, ptr, ...) @Abc_Print(i32 noundef 0, ptr noundef nonnull @.str)
  br label %.loopexit

.loopexit:                                        ; preds = %15, %3, %25
  %26 = getelementptr i8, ptr %1, i64 16
  %.val5157 = load i32, ptr %26, align 8
  %27 = icmp sgt i32 %.val5157, 0
  br i1 %27, label %.lr.ph60, label %._crit_edge61

.lr.ph60:                                         ; preds = %.loopexit
  %28 = icmp sgt i32 %10, 0
  br i1 %28, label %.lr.ph56.us.preheader, label %._crit_edge61

.lr.ph56.us.preheader:                            ; preds = %.lr.ph60
  %29 = and i64 %8, 8589934588
  br label %.lr.ph56.us

.lr.ph56.us:                                      ; preds = %.lr.ph56.us.preheader, %.lr.ph56.us
  %indvars.iv = phi i64 [ 0, %.lr.ph56.us.preheader ], [ %indvars.iv.next, %.lr.ph56.us ]
  %.val.us = load ptr, ptr %4, align 8
  %30 = getelementptr inbounds nuw ptr, ptr %.val.us, i64 %indvars.iv
  %31 = load ptr, ptr %30, align 8
  tail call void @llvm.memset.p0.i64(ptr align 4 %31, i8 0, i64 %29, i1 false)
  %indvars.iv.next = add nuw nsw i64 %indvars.iv, 1
  %.val51.us = load i32, ptr %26, align 8
  %32 = sext i32 %.val51.us to i64
  %33 = icmp slt i64 %indvars.iv.next, %32
  br i1 %33, label %.lr.ph56.us, label %._crit_edge61.loopexit, !llvm.loop !6

._crit_edge61.loopexit:                           ; preds = %.lr.ph56.us
  %34 = trunc nuw nsw i64 %indvars.iv.next to i32
  br label %._crit_edge61

._crit_edge61:                                    ; preds = %.lr.ph60, %._crit_edge61.loopexit, %.loopexit
  %.145.lcssa = phi i32 [ 0, %.loopexit ], [ %34, %._crit_edge61.loopexit ], [ %.val5157, %.lr.ph60 ]
  %35 = load i32, ptr %11, align 4
  %36 = getelementptr inbounds nuw i8, ptr %2, i64 16
  %37 = load i32, ptr %36, align 4
  %38 = icmp slt i32 %35, %37
  br i1 %38, label %.lr.ph67, label %.preheader

.lr.ph67:                                         ; preds = %._crit_edge61
  %39 = icmp sgt i32 %10, 0
  %40 = getelementptr inbounds nuw i8, ptr %2, i64 20
  %41 = zext nneg i32 %.145.lcssa to i64
  br i1 %39, label %.lr.ph63.us.preheader, label %.lr.ph67.split

.lr.ph63.us.preheader:                            ; preds = %.lr.ph67
  %wide.trip.count = and i64 %9, 2147483647
  br label %.lr.ph63.us

.lr.ph63.us:                                      ; preds = %.lr.ph63.us.preheader, %._crit_edge.us69
  %indvars.iv93 = phi i64 [ %41, %.lr.ph63.us.preheader ], [ %indvars.iv.next94, %._crit_edge.us69 ]
  %.04365.us = phi i32 [ %35, %.lr.ph63.us.preheader ], [ %58, %._crit_edge.us69 ]
  %.val47.us = load ptr, ptr %4, align 8
  %42 = getelementptr inbounds nuw ptr, ptr %.val47.us, i64 %indvars.iv93
  %43 = load ptr, ptr %42, align 8
  br label %44

44:                                               ; preds = %.lr.ph63.us, %44
  %indvars.iv89 = phi i64 [ 0, %.lr.ph63.us ], [ %indvars.iv.next90, %44 ]
  %45 = tail call i32 @Gia_ManRandom(i32 noundef 0) #13
  %46 = getelementptr inbounds nuw i32, ptr %43, i64 %indvars.iv89
  store i32 %45, ptr %46, align 4
  %indvars.iv.next90 = add nuw nsw i64 %indvars.iv89, 1
  %exitcond92.not = icmp eq i64 %indvars.iv.next90, %wide.trip.count
  br i1 %exitcond92.not, label %._crit_edge.us69, label %44, !llvm.loop !7

._crit_edge.us69:                                 ; preds = %44
  %indvars.iv.next94 = add nuw nsw i64 %indvars.iv93, 1
  %47 = load i32, ptr %43, align 4
  %48 = ashr i32 %.04365.us, 5
  %49 = sext i32 %48 to i64
  %50 = getelementptr inbounds i32, ptr %40, i64 %49
  %51 = load i32, ptr %50, align 4
  %52 = and i32 %.04365.us, 31
  %53 = lshr i32 %51, %52
  %54 = shl i32 %47, 2
  %55 = shl i32 %53, 1
  %56 = and i32 %55, 2
  %57 = or disjoint i32 %56, %54
  store i32 %57, ptr %43, align 4
  %58 = add nsw i32 %.04365.us, 1
  %59 = load i32, ptr %36, align 4
  %60 = icmp slt i32 %58, %59
  br i1 %60, label %.lr.ph63.us, label %.preheader.loopexit, !llvm.loop !8

.preheader.loopexit:                              ; preds = %._crit_edge.us69
  %61 = trunc nuw i64 %indvars.iv.next94 to i32
  br label %.preheader

.preheader.loopexit79:                            ; preds = %.lr.ph67.split
  %62 = trunc nuw i64 %indvars.iv.next87 to i32
  br label %.preheader

.preheader:                                       ; preds = %.preheader.loopexit79, %.preheader.loopexit, %._crit_edge61
  %.246.lcssa = phi i32 [ %.145.lcssa, %._crit_edge61 ], [ %61, %.preheader.loopexit ], [ %62, %.preheader.loopexit79 ]
  %63 = getelementptr i8, ptr %0, i64 4
  %.val5273 = load i32, ptr %63, align 4
  %64 = icmp slt i32 %.246.lcssa, %.val5273
  %65 = icmp sgt i32 %10, 0
  %or.cond = select i1 %64, i1 %65, i1 false
  br i1 %or.cond, label %.lr.ph72.us.preheader, label %._crit_edge76

.lr.ph72.us.preheader:                            ; preds = %.preheader
  %66 = zext i32 %.246.lcssa to i64
  %wide.trip.count99 = and i64 %9, 2147483647
  br label %.lr.ph72.us

.lr.ph72.us:                                      ; preds = %.lr.ph72.us.preheader, %._crit_edge.us77
  %indvars.iv101 = phi i64 [ %66, %.lr.ph72.us.preheader ], [ %indvars.iv.next102, %._crit_edge.us77 ]
  %.val48.us = load ptr, ptr %4, align 8
  %67 = getelementptr inbounds nuw ptr, ptr %.val48.us, i64 %indvars.iv101
  %68 = load ptr, ptr %67, align 8
  br label %69

69:                                               ; preds = %.lr.ph72.us, %69
  %indvars.iv96 = phi i64 [ 0, %.lr.ph72.us ], [ %indvars.iv.next97, %69 ]
  %70 = tail call i32 @Gia_ManRandom(i32 noundef 0) #13
  %71 = getelementptr inbounds nuw i32, ptr %68, i64 %indvars.iv96
  store i32 %70, ptr %71, align 4
  %indvars.iv.next97 = add nuw nsw i64 %indvars.iv96, 1
  %exitcond100.not = icmp eq i64 %indvars.iv.next97, %wide.trip.count99
  br i1 %exitcond100.not, label %._crit_edge.us77, label %69, !llvm.loop !9

._crit_edge.us77:                                 ; preds = %69
  %indvars.iv.next102 = add nuw nsw i64 %indvars.iv101, 1
  %.val52.us = load i32, ptr %63, align 4
  %72 = trunc nuw i64 %indvars.iv.next102 to i32
  %73 = icmp sgt i32 %.val52.us, %72
  br i1 %73, label %.lr.ph72.us, label %._crit_edge76, !llvm.loop !10

.lr.ph67.split:                                   ; preds = %.lr.ph67, %.lr.ph67.split
  %indvars.iv86 = phi i64 [ %indvars.iv.next87, %.lr.ph67.split ], [ %41, %.lr.ph67 ]
  %.04365 = phi i32 [ %87, %.lr.ph67.split ], [ %35, %.lr.ph67 ]
  %indvars.iv.next87 = add nuw nsw i64 %indvars.iv86, 1
  %.val47 = load ptr, ptr %4, align 8
  %74 = getelementptr inbounds nuw ptr, ptr %.val47, i64 %indvars.iv86
  %75 = load ptr, ptr %74, align 8
  %76 = load i32, ptr %75, align 4
  %77 = ashr i32 %.04365, 5
  %78 = sext i32 %77 to i64
  %79 = getelementptr inbounds i32, ptr %40, i64 %78
  %80 = load i32, ptr %79, align 4
  %81 = and i32 %.04365, 31
  %82 = lshr i32 %80, %81
  %83 = shl i32 %76, 2
  %84 = shl i32 %82, 1
  %85 = and i32 %84, 2
  %86 = or disjoint i32 %85, %83
  store i32 %86, ptr %75, align 4
  %87 = add nsw i32 %.04365, 1
  %88 = load i32, ptr %36, align 4
  %89 = icmp slt i32 %87, %88
  br i1 %89, label %.lr.ph67.split, label %.preheader.loopexit79, !llvm.loop !8

._crit_edge76:                                    ; preds = %._crit_edge.us77, %.preheader
  ret void
}